target datalayout = "e-m:e-p270:32:32-p271:32:32-p272:64:64-i64:64-i128:128-f80:128-n8:16:32:64-S128"
target triple = "x86_64-pc-linux-gnu"

%class.Sample = type { ptr, ptr, ptr, ptr, ptr, i8, float, float, float, float, float, float, float, float, float, float, float, float, float, i32, i8, i8, i8, ptr, [9 x ptr], ptr, %class.SampleDebugDraw }
%class.SampleDebugDraw = type { %class.DebugDrawGL }
%class.DebugDrawGL = type { %struct.duDebugDraw }
%struct.duDebugDraw = type { ptr }

; Function Attrs: mustprogress uwtable
define dso_local void @_ZN15Sample_SoloMesh17handleMeshChangedEP9InputGeom(ptr noundef nonnull align 8 dereferenceable(356) %0, ptr noundef %1) unnamed_addr #0 align 2 {
  %3 = alloca ptr, align 8
  %4 = alloca ptr, align 8
  store ptr %0, ptr %3, align 8
  store ptr %1, ptr %4, align 8
  %5 = load ptr, ptr %3, align 8
  %6 = load ptr, ptr %4, align 8
  call void @_ZN6Sample17handleMeshChangedEP9InputGeom(ptr noundef nonnull align 8 dereferenceable(200) %5, ptr noundef %6)
  %7 = getelementptr inbounds %class.Sample, ptr %5, i32 0, i32 2
  %8 = load ptr, ptr %7, align 8
  call void @_Z13dtFreeNavMeshP9dtNavMesh(ptr noundef %8)
  %9 = getelementptr inbounds %class.Sample, ptr %5, i32 0, i32 2
  store ptr null, ptr %9, align 8
  %10 = getelementptr inbounds %class.Sample, ptr %5, i32 0, i32 23
  %11 = load ptr, ptr %10, align 8
  %12 = icmp ne ptr %11, null
  br i1 %12, label %13, label %24

13:                                               ; preds = %2
  %14 = getelementptr inbounds %class.Sample, ptr %5, i32 0, i32 23
  %15 = load ptr, ptr %14, align 8
  %16 = load ptr, ptr %15, align 8
  %17 = getelementptr inbounds ptr, ptr %16, i64 4
  %18 = load ptr, ptr %17, align 8
  call void %18(ptr noundef nonnull align 8 dereferenceable(8) %15)
  %19 = getelementptr inbounds %class.Sample, ptr %5, i32 0, i32 23
  %20 = load ptr, ptr %19, align 8
  %21 = load ptr, ptr %20, align 8
  %22 = getelementptr inbounds ptr, ptr %21, i64 3
  %23 = load ptr, ptr %22, align 8
  call void %23(ptr noundef nonnull align 8 dereferenceable(8) %20, ptr noundef %5)
  br label %24

24:                                               ; preds = %13, %2
  call void @_ZN6Sample15resetToolStatesEv(ptr noundef nonnull align 8 dereferenceable(200) %5)
  call void @_ZN6Sample14initToolStatesEPS_(ptr noundef nonnull align 8 dereferenceable(200) %5, ptr noundef %5)
  ret void
}