; Function Attrs: mustprogress uwtable
define dso_local void @_ZN15Sample_SoloMesh17handleMeshChangedEP9InputGeom(ptr noundef nonnull align 8 dereferenceable(356) %0, ptr noundef %1) unnamed_addr #0 align 2 {
  tail call void @_ZN6Sample17handleMeshChangedEP9InputGeom(ptr noundef nonnull align 8 dereferenceable(200) %0, ptr noundef %1)
  %3 = getelementptr inbounds i8, ptr %0, i64 16
  %4 = load ptr, ptr %3, align 8
  tail call void @_Z13dtFreeNavMeshP9dtNavMesh(ptr noundef %4)
  store ptr null, ptr %3, align 8
  %5 = getelementptr inbounds i8, ptr %0, i64 104
  %6 = load ptr, ptr %5, align 8
  %.not = icmp eq ptr %6, null
  br i1 %.not, label %15, label %7

7:                                                ; preds = %2
  %8 = load ptr, ptr %6, align 8
  %9 = getelementptr inbounds i8, ptr %8, i64 32
  %10 = load ptr, ptr %9, align 8
  tail call void %10(ptr noundef nonnull align 8 dereferenceable(8) %6)
  %11 = load ptr, ptr %5, align 8
  %12 = load ptr, ptr %11, align 8
  %13 = getelementptr inbounds i8, ptr %12, i64 24
  %14 = load ptr, ptr %13, align 8
  tail call void %14(ptr noundef nonnull align 8 dereferenceable(8) %11, ptr noundef nonnull %0)
  br label %15

15:                                               ; preds = %7, %2
  tail call void @_ZN6Sample15resetToolStatesEv(ptr noundef nonnull align 8 dereferenceable(200) %0)
  tail call void @_ZN6Sample14initToolStatesEPS_(ptr noundef nonnull align 8 dereferenceable(200) %0, ptr noundef nonnull %0)
  ret void
}